; ModuleID = '31/242.c'
source_filename = "31/242.c"
target datalayout = "e-m:e-p270:32:32-p271:32:32-p272:64:64-i64:64-f80:128-n8:16:32:64-S128"
target triple = "x86_64-pc-linux-gnu"

%struct.student = type { [20 x i8], [20 x i8], i8, i32, float, [20 x i8], %struct.student* }

@.str = private unnamed_addr constant [3 x i8] c"%s\00", align 1
@.str.1 = private unnamed_addr constant [4 x i8] c"end\00", align 1
@.str.2 = private unnamed_addr constant [14 x i8] c"%s%*c%c%d%f%s\00", align 1
@.str.3 = private unnamed_addr constant [19 x i8] c"%s %s %c %d %g %s\0A\00", align 1

; Function Attrs: noinline nounwind uwtable
define dso_local void @main(%struct.student* noalias sret %0) #0 {
  %2 = alloca i32, align 4
  %3 = alloca i32, align 4
  %4 = alloca i32, align 4
  %5 = alloca i32, align 4
  %6 = alloca %struct.student*, align 8
  %7 = alloca %struct.student*, align 8
  %8 = alloca %struct.student*, align 8
  %9 = alloca %struct.student*, align 8
  store i32 0, i32* %5, align 4
  %10 = call noalias i8* @malloc(i64 100) #4
  %11 = bitcast i8* %10 to %struct.student*
  store %struct.student* %11, %struct.student** %8, align 8
  store %struct.student* %11, %struct.student** %7, align 8
  store i32 0, i32* %2, align 4
  br label %12

12:                                               ; preds = %52, %1
  %13 = load %struct.student*, %struct.student** %7, align 8
  %14 = getelementptr inbounds %struct.student, %struct.student* %13, i32 0, i32 0
  %15 = getelementptr inbounds [20 x i8], [20 x i8]* %14, i64 0, i64 0
  %16 = call i32 (i8*, ...) @__isoc99_scanf(i8* getelementptr inbounds ([3 x i8], [3 x i8]* @.str, i64 0, i64 0), i8* %15)
  %17 = load %struct.student*, %struct.student** %7, align 8
  %18 = getelementptr inbounds %struct.student, %struct.student* %17, i32 0, i32 0
  %19 = getelementptr inbounds [20 x i8], [20 x i8]* %18, i64 0, i64 0
  %20 = call i32 @strcmp(i8* %19, i8* getelementptr inbounds ([4 x i8], [4 x i8]* @.str.1, i64 0, i64 0)) #5
  %21 = icmp eq i32 %20, 0
  br i1 %21, label %22, label %23

22:                                               ; preds = %12
  br label %55

23:                                               ; preds = %12
  %24 = load %struct.student*, %struct.student** %7, align 8
  %25 = getelementptr inbounds %struct.student, %struct.student* %24, i32 0, i32 1
  %26 = getelementptr inbounds [20 x i8], [20 x i8]* %25, i64 0, i64 0
  %27 = load %struct.student*, %struct.student** %7, align 8
  %28 = getelementptr inbounds %struct.student, %struct.student* %27, i32 0, i32 2
  %29 = load %struct.student*, %struct.student** %7, align 8
  %30 = getelementptr inbounds %struct.student, %struct.student* %29, i32 0, i32 3
  %31 = load %struct.student*, %struct.student** %7, align 8
  %32 = getelementptr inbounds %struct.student, %struct.student* %31, i32 0, i32 4
  %33 = load %struct.student*, %struct.student** %7, align 8
  %34 = getelementptr inbounds %struct.student, %struct.student* %33, i32 0, i32 5
  %35 = getelementptr inbounds [20 x i8], [20 x i8]* %34, i64 0, i64 0
  %36 = call i32 (i8*, ...) @__isoc99_scanf(i8* getelementptr inbounds ([14 x i8], [14 x i8]* @.str.2, i64 0, i64 0), i8* %26, i8* %28, i32* %30, float* %32, i8* %35)
  %37 = load i32, i32* %5, align 4
  %38 = add nsw i32 %37, 1
  store i32 %38, i32* %5, align 4
  br label %39

39:                                               ; preds = %23
  %40 = load i32, i32* %2, align 4
  %41 = icmp eq i32 %40, 0
  br i1 %41, label %42, label %44

42:                                               ; preds = %39
  %43 = load %struct.student*, %struct.student** %7, align 8
  store %struct.student* %43, %struct.student** %6, align 8
  br label %48

44:                                               ; preds = %39
  %45 = load %struct.student*, %struct.student** %7, align 8
  %46 = load %struct.student*, %struct.student** %8, align 8
  %47 = getelementptr inbounds %struct.student, %struct.student* %46, i32 0, i32 6
  store %struct.student* %45, %struct.student** %47, align 8
  br label %48

48:                                               ; preds = %44, %42
  %49 = load %struct.student*, %struct.student** %7, align 8
  store %struct.student* %49, %struct.student** %8, align 8
  %50 = call noalias i8* @malloc(i64 100) #4
  %51 = bitcast i8* %50 to %struct.student*
  store %struct.student* %51, %struct.student** %7, align 8
  br label %52

52:                                               ; preds = %48
  %53 = load i32, i32* %2, align 4
  %54 = add nsw i32 %53, 1
  store i32 %54, i32* %2, align 4
  br label %12

55:                                               ; preds = %22
  %56 = load %struct.student*, %struct.student** %8, align 8
  %57 = getelementptr inbounds %struct.student, %struct.student* %56, i32 0, i32 6
  store %struct.student* null, %struct.student** %57, align 8
  %58 = load i32, i32* %5, align 4
  store i32 %58, i32* %4, align 4
  store i32 0, i32* %2, align 4
  br label %59

59:                                               ; preds = %101, %55
  %60 = load i32, i32* %2, align 4
  %61 = load i32, i32* %5, align 4
  %62 = icmp slt i32 %60, %61
  br i1 %62, label %63, label %104

63:                                               ; preds = %59
  %64 = load %struct.student*, %struct.student** %6, align 8
  store %struct.student* %64, %struct.student** %9, align 8
  store i32 0, i32* %3, align 4
  br label %65

65:                                               ; preds = %74, %63
  %66 = load i32, i32* %3, align 4
  %67 = load i32, i32* %4, align 4
  %68 = sub nsw i32 %67, 1
  %69 = icmp slt i32 %66, %68
  br i1 %69, label %70, label %77

70:                                               ; preds = %65
  %71 = load %struct.student*, %struct.student** %9, align 8
  %72 = getelementptr inbounds %struct.student, %struct.student* %71, i32 0, i32 6
  %73 = load %struct.student*, %struct.student** %72, align 8
  store %struct.student* %73, %struct.student** %9, align 8
  br label %74

74:                                               ; preds = %70
  %75 = load i32, i32* %3, align 4
  %76 = add nsw i32 %75, 1
  store i32 %76, i32* %3, align 4
  br label %65

77:                                               ; preds = %65
  %78 = load %struct.student*, %struct.student** %9, align 8
  %79 = getelementptr inbounds %struct.student, %struct.student* %78, i32 0, i32 0
  %80 = getelementptr inbounds [20 x i8], [20 x i8]* %79, i64 0, i64 0
  %81 = load %struct.student*, %struct.student** %9, align 8
  %82 = getelementptr inbounds %struct.student, %struct.student* %81, i32 0, i32 1
  %83 = getelementptr inbounds [20 x i8], [20 x i8]* %82, i64 0, i64 0
  %84 = load %struct.student*, %struct.student** %9, align 8
  %85 = getelementptr inbounds %struct.student, %struct.student* %84, i32 0, i32 2
  %86 = load i8, i8* %85, align 8
  %87 = sext i8 %86 to i32
  %88 = load %struct.student*, %struct.student** %9, align 8
  %89 = getelementptr inbounds %struct.student, %struct.student* %88, i32 0, i32 3
  %90 = load i32, i32* %89, align 4
  %91 = load %struct.student*, %struct.student** %9, align 8
  %92 = getelementptr inbounds %struct.student, %struct.student* %91, i32 0, i32 4
  %93 = load float, float* %92, align 8
  %94 = fpext float %93 to double
  %95 = load %struct.student*, %struct.student** %9, align 8
  %96 = getelementptr inbounds %struct.student, %struct.student* %95, i32 0, i32 5
  %97 = getelementptr inbounds [20 x i8], [20 x i8]* %96, i64 0, i64 0
  %98 = call i32 (i8*, ...) @printf(i8* getelementptr inbounds ([19 x i8], [19 x i8]* @.str.3, i64 0, i64 0), i8* %80, i8* %83, i32 %87, i32 %90, double %94, i8* %97)
  %99 = load i32, i32* %4, align 4
  %100 = sub nsw i32 %99, 1
  store i32 %100, i32* %4, align 4
  br label %101

101:                                              ; preds = %77
  %102 = load i32, i32* %2, align 4
  %103 = add nsw i32 %102, 1
  store i32 %103, i32* %2, align 4
  br label %59

104:                                              ; preds = %59
  ret void
}

; Function Attrs: nounwind
declare dso_local noalias i8* @malloc(i64) #1

declare dso_local i32 @__isoc99_scanf(i8*, ...) #2

; Function Attrs: nounwind readonly
declare dso_local i32 @strcmp(i8*, i8*) #3

declare dso_local i32 @printf(i8*, ...) #2


!llvm.module.flags = !{!0}
!llvm.ident = !{!1}

!0 = !{i32 1, !"wchar_size", i32 4}
!1 = !{!"clang version 10.0.0-4ubuntu1 "}
